; Function Attrs: mustprogress uwtable
define hidden void @_ZN4ncnn13PoolAllocatorC2Ev(ptr noundef nonnull writeonly align 8 captures(none) dereferenceable(16) initializes((0, 16)) %0) unnamed_addr #2 align 2 personality ptr @__gxx_personality_v0 {
  store ptr getelementptr inbounds nuw inrange(-16, 32) (i8, ptr @_ZTVN4ncnn13PoolAllocatorE, i64 16), ptr %0, align 8, !tbaa !42
  %2 = tail call noalias noundef nonnull dereferenceable(144) ptr @_Znwm(i64 noundef 144) #18
  %3 = tail call i32 @pthread_mutex_init(ptr noundef nonnull align 8 dereferenceable(144) %2, ptr noundef null) #16
  %4 = getelementptr inbounds nuw i8, ptr %2, i64 40
  %5 = tail call i32 @pthread_mutex_init(ptr noundef nonnull align 8 dereferenceable(40) %4, ptr noundef null) #16
  %6 = getelementptr inbounds nuw i8, ptr %2, i64 96
  %7 = getelementptr inbounds nuw i8, ptr %2, i64 104
  store ptr %6, ptr %7, align 8, !tbaa !44
  store ptr %6, ptr %6, align 8, !tbaa !11
  %8 = getelementptr inbounds nuw i8, ptr %2, i64 112
  store i64 0, ptr %8, align 8, !tbaa !45
  %9 = getelementptr inbounds nuw i8, ptr %2, i64 120
  %10 = getelementptr inbounds nuw i8, ptr %2, i64 128
  store ptr %9, ptr %10, align 8, !tbaa !44
  store ptr %9, ptr %9, align 8, !tbaa !11
  %11 = getelementptr inbounds nuw i8, ptr %2, i64 136
  store i64 0, ptr %11, align 8, !tbaa !45
  %12 = getelementptr inbounds nuw i8, ptr %0, i64 8
  store ptr %2, ptr %12, align 8, !tbaa !4
  %13 = getelementptr inbounds nuw i8, ptr %2, i64 80
  store i32 0, ptr %13, align 8, !tbaa !17
  %14 = getelementptr inbounds nuw i8, ptr %2, i64 88
  store i64 10, ptr %14, align 8, !tbaa !29
  ret void
}